target datalayout = "e-m:e-p270:32:32-p271:32:32-p272:64:64-i64:64-i128:128-f80:128-n8:16:32:64-S128"
target triple = "x86_64-pc-linux-gnu"

@.str.207 = private unnamed_addr constant [7 x i8] c"%-5.*f\00", align 1

; Function Attrs: inlinehint nounwind uwtable
define internal i32 @_blendif_print_digits_ab(float noundef %0) #3 {
  %2 = alloca float, align 4
  %3 = alloca i32, align 4
  store float %0, ptr %2, align 4, !tbaa !83
  call void @llvm.lifetime.start.p0(i64 4, ptr %3) #11
  %4 = load float, ptr %2, align 4, !tbaa !83
  %5 = call reassoc nsz arcp contract afn float @llvm.fabs.f32(float %4)
  %6 = fcmp reassoc nsz arcp contract afn olt float %5, 1.000000e+01
  br i1 %6, label %7, label %8

7:                                                ; preds = %1
  store i32 1, ptr %3, align 4, !tbaa !80
  br label %9

8:                                                ; preds = %1
  store i32 0, ptr %3, align 4, !tbaa !80
  br label %9

9:                                                ; preds = %8, %7
  %10 = load i32, ptr %3, align 4, !tbaa !80
  call void @llvm.lifetime.end.p0(i64 4, ptr %3) #11
  ret i32 %10
}

; Function Attrs: nounwind uwtable
define internal void @_blendif_scale_print_ab(float noundef %0, float noundef %1, ptr noundef %2, i32 noundef %3) #0 {
  %5 = alloca float, align 4
  %6 = alloca float, align 4
  %7 = alloca ptr, align 8
  %8 = alloca i32, align 4
  %9 = alloca float, align 4
  store float %0, ptr %5, align 4, !tbaa !83
  store float %1, ptr %6, align 4, !tbaa !83
  store ptr %2, ptr %7, align 8, !tbaa !141
  store i32 %3, ptr %8, align 4, !tbaa !80
  call void @llvm.lifetime.start.p0(i64 4, ptr %9) #11
  %10 = load float, ptr %5, align 4, !tbaa !83
  %11 = fmul reassoc nsz arcp contract afn float %10, 2.560000e+02
  %12 = fsub reassoc nsz arcp contract afn float %11, 1.280000e+02
  %13 = load float, ptr %6, align 4, !tbaa !83
  %14 = fmul reassoc nsz arcp contract afn float %12, %13
  store float %14, ptr %9, align 4, !tbaa !83
  %15 = load ptr, ptr %7, align 8, !tbaa !141
  %16 = load i32, ptr %8, align 4, !tbaa !80
  %17 = sext i32 %16 to i64
  %18 = load float, ptr %9, align 4, !tbaa !83
  %19 = call i32 @_blendif_print_digits_ab(float noundef %18)
  %20 = load float, ptr %9, align 4, !tbaa !83
  %21 = fpext reassoc nsz arcp contract afn float %20 to double
  %22 = call i32 (ptr, i64, ptr, ...) @snprintf(ptr noundef %15, i64 noundef %17, ptr noundef @.str.207, i32 noundef %19, double noundef %21) #11
  call void @llvm.lifetime.end.p0(i64 4, ptr %9) #11
  ret void
}