; Function Attrs: nofree nounwind uwtable
define internal void @_blendif_scale_print_ab(float noundef %0, float noundef %1, ptr noundef writeonly captures(none) %2, i32 noundef %3) #4 {
  %5 = fmul reassoc nsz arcp contract afn float %0, 2.560000e+02
  %6 = fadd reassoc nsz arcp contract afn float %5, -1.280000e+02
  %7 = fmul reassoc nsz arcp contract afn float %6, %1
  %8 = sext i32 %3 to i64
  %9 = tail call reassoc nsz arcp contract afn float @llvm.fabs.f32(float %7)
  %10 = fcmp reassoc nsz arcp contract afn olt float %9, 1.000000e+01
  %..i = zext i1 %10 to i32
  %11 = fpext reassoc nsz arcp contract afn float %7 to double
  %12 = tail call i32 (ptr, i64, ptr, ...) @snprintf(ptr noundef %2, i64 noundef %8, ptr noundef nonnull @.str.207, i32 noundef %..i, double noundef %11) #18
  ret void
}